target datalayout = "e-m:e-p270:32:32-p271:32:32-p272:64:64-i64:64-i128:128-f80:128-n8:16:32:64-S128"
target triple = "x86_64-pc-linux-gnu"

; Function Attrs: nounwind uwtable
define void @_PaPulseAudio_WriteRingBuffer(ptr noundef %0, ptr noundef %1, i64 noundef %2) #0 {
  %4 = alloca ptr, align 8
  %5 = alloca ptr, align 8
  %6 = alloca i64, align 8
  %7 = alloca [768800 x i8], align 16
  store ptr %0, ptr %4, align 8, !tbaa !40
  store ptr %1, ptr %5, align 8, !tbaa !19
  store i64 %2, ptr %6, align 8, !tbaa !12
  %8 = load ptr, ptr %4, align 8, !tbaa !40
  %9 = call i64 @PaUtil_GetRingBufferWriteAvailable(ptr noundef %8)
  %10 = load i64, ptr %6, align 8, !tbaa !12
  %11 = icmp ult i64 %9, %10
  br i1 %11, label %12, label %17

12:                                               ; preds = %3
  call void @llvm.lifetime.start.p0(i64 768800, ptr %7) #6
  %13 = load ptr, ptr %4, align 8, !tbaa !40
  %14 = getelementptr inbounds [768800 x i8], ptr %7, i64 0, i64 0
  %15 = load i64, ptr %6, align 8, !tbaa !12
  %16 = call i64 @PaUtil_ReadRingBuffer(ptr noundef %13, ptr noundef %14, i64 noundef %15)
  call void @llvm.lifetime.end.p0(i64 768800, ptr %7) #6
  br label %17

17:                                               ; preds = %12, %3
  %18 = load ptr, ptr %4, align 8, !tbaa !40
  %19 = load ptr, ptr %5, align 8, !tbaa !19
  %20 = load i64, ptr %6, align 8, !tbaa !12
  %21 = call i64 @PaUtil_WriteRingBuffer(ptr noundef %18, ptr noundef %19, i64 noundef %20)
  ret void
}