; Function Attrs: nounwind uwtable
define void @_PaPulseAudio_WriteRingBuffer(ptr noundef %0, ptr noundef %1, i64 noundef %2) local_unnamed_addr #0 {
  %4 = alloca [768800 x i8], align 16
  %5 = tail call i64 @PaUtil_GetRingBufferWriteAvailable(ptr noundef %0) #5
  %6 = icmp ult i64 %5, %2
  br i1 %6, label %7, label %9

7:                                                ; preds = %3
  call void @llvm.lifetime.start.p0(i64 768800, ptr nonnull %4) #5
  %8 = call i64 @PaUtil_ReadRingBuffer(ptr noundef %0, ptr noundef nonnull %4, i64 noundef %2) #5
  call void @llvm.lifetime.end.p0(i64 768800, ptr nonnull %4) #5
  br label %9

9:                                                ; preds = %7, %3
  %10 = call i64 @PaUtil_WriteRingBuffer(ptr noundef %0, ptr noundef %1, i64 noundef %2) #5
  ret void
}